Certificate:
    Data:
        Version: 1 (0x0)
        Serial Number: 1 (0x1)
        Signature Algorithm: sha1WithRSAEncryption
        Issuer: C=AU, ST=Some-State, O=Internet Widgits Pty Ltd
        Validity
            Not Before: Jun 13 03:27:23 2007 GMT
            Not After : Mar  9 03:27:23 2010 GMT
        Subject: C=IN, ST=Some-State, L=hyd, O=Internet Widgits Pty Ltd, OU=cavium
        Subject Public Key Info:
            Public Key Algorithm: rsaEncryption
            RSA Public Key: (1024 bit)
                Modulus (1024 bit):
                    00:9e:5f:b3:8d:52:e9:97:28:12:95:96:6d:91:51:
                    1e:04:9d:64:9d:64:69:bb:1a:3b:45:e4:66:6e:f7:
                    7c:d5:42:5d:eb:13:18:1b:e7:43:ae:c3:f6:cd:ea:
                    0e:66:e1:f4:40:49:d3:cf:23:92:38:a1:63:71:15:
                    dd:30:3b:45:a3:6b:95:4a:06:07:68:6f:3c:a7:0e:
                    4b:87:68:5f:58:a4:4b:11:66:f3:28:e4:40:49:08:
                    7a:0e:12:70:a9:4a:23:69:17:66:92:8b:00:25:1f:
                    d0:ff:f8:c7:73:50:bf:55:35:85:73:ca:36:a5:a3:
                    d5:22:69:df:01:a3:0f:5f:c1
                Exponent: 65537 (0x10001)
    Signature Algorithm: sha1WithRSAEncryption
        65:7b:b9:f2:38:62:93:99:c0:77:23:ff:55:c6:b8:84:69:16:
        0f:b7:5e:02:f7:6c:82:8c:cf:a5:ff:9b:0c:30:85:41:af:64:
        94:81:a3:0c:27:56:f3:b9:c5:29:30:92:a3:6e:40:8c:2c:ba:
        ad:0a:cd:c8:80:9e:4e:09:c0:0c:e3:40:ed:9c:0c:86:19:f9:
        74:3a:5a:6e:01:1b:da:33:d2:0e:d5:9e:ed:62:71:81:91:91:
        5c:41:20:39:c7:6f:dd:e5:a1:2e:6c:5c:57:8e:ad:62:0c:3c:
        62:1f:1e:f6:d2:78:28:3d:b7:83:4d:65:a3:10:9b:4f:12:f4:
        1b:77
-----BEGIN CERTIFICATE-----
MIICGDCCAYECAQEwDQYJKoZIhvcNAQEFBQAwRTELMAkGA1UEBhMCQVUxEzARBgNV
BAgTClNvbWUtU3RhdGUxITAfBgNVBAoTGEludGVybmV0IFdpZGdpdHMgUHR5IEx0
ZDAeFw0wNzA2MTMwMzI3MjNaFw0xMDAzMDkwMzI3MjNaMGQxCzAJBgNVBAYTAklO
MRMwEQYDVQQIEwpTb21lLVN0YXRlMQwwCgYDVQQHEwNoeWQxITAfBgNVBAoTGElu
dGVybmV0IFdpZGdpdHMgUHR5IEx0ZDEPMA0GA1UECxMGY2F2aXVtMIGfMA0GCSqG
SIb3DQEBAQUAA4GNADCBiQKBgQCeX7ONUumXKBKVlm2RUR4EnWSdZGm7GjtF5GZu
93zVQl3rExgb50Ouw/bN6g5m4fRASdPPI5I4oWNxFd0wO0Wja5VKBgdobzynDkuH
aF9YpEsRZvMo5EBJCHoOEnCpSiNpF2aSiwAlH9D/+MdzUL9VNYVzyjalo9Uiad8B
ow9fwQIDAQABMA0GCSqGSIb3DQEBBQUAA4GBAGV7ufI4YpOZwHcj/1XGuIRpFg+3
XgL3bIKMz6X/mwwwhUGvZJSBowwnVvO5xSkwkqNuQIwsuq0KzciAnk4JwAzjQO2c
DIYZ+XQ6Wm4BG9oz0g7Vnu1icYGRkVxBIDnHb93loS5sXFeOrWIMPGIfHvbSeCg9
t4NNZaMQm08S9Bt3
-----END CERTIFICATE-----
-----BEGIN RSA PRIVATE KEY-----
MIICXAIBAAKBgQCeX7ONUumXKBKVlm2RUR4EnWSdZGm7GjtF5GZu93zVQl3rExgb
50Ouw/bN6g5m4fRASdPPI5I4oWNxFd0wO0Wja5VKBgdobzynDkuHaF9YpEsRZvMo
5EBJCHoOEnCpSiNpF2aSiwAlH9D/+MdzUL9VNYVzyjalo9Uiad8Bow9fwQIDAQAB
AoGAAphq5tv++/0qIM1wSjtcFJNHvNSSbwCFDCYsD5F6uDv4MgwEDyEBGPIZL1Kw
nbsCN7N+Bxz8HnV2nbnQACRYhch4j0Rv8uizcevXwQWKzOOSNVIOWaQ4XXH17iWm
Xtc/Rriy3yr7OLNaYDk01BMzVtTv8KCt0ZLxOjdun3jXvWECQQDSDUZHhTX4yUQ7
fP3OvI7uo9QMbhd+ZFvjSZUjY/sRwagQPTSnqD2HLLv5njI7QspAiVawzrD1OyQ3
WppgHM8NAkEAwQSAaGicI+SymxuPfRMxEeA73EROSEz9RrVzyjfyAYfmN+Jd7E7s
Of53lRP5F4h0AiYrQN4fZ9sHGQ0B2NOGhQJAXnG/hsrbgJgmSMUjbYAUmDIrVsdt
YtQHCMP9/aKnsc0sHtkWQsf/mja/8jVyCnk2bRwTUX4tzKWh3A2t2cc6RQJAFalm
q9EJrPGOpd+q89OCj0oGDctQqcaSKixVCV3L+CYDTURHXCzjUALh8sYiD2UN9+vG
sOn8xlALdOFD0syybQJBAIDTFNSz8/iy99nPfk0ormN+G9EYR0OGpbZQW5Am675M
/8QDBzKzstKsnC95ibCdACGM+zvB/pBUcqKfTNJE4u4=
-----END RSA PRIVATE KEY-----
